target datalayout = "e-m:e-p270:32:32-p271:32:32-p272:64:64-i64:64-i128:128-f80:128-n8:16:32:64-S128"
target triple = "x86_64-pc-linux-gnu"

%struct.DdManager = type { %struct.DdNode, ptr, ptr, ptr, ptr, ptr, ptr, ptr, i32, i32, double, double, double, i32, i32, i32, i32, i32, i32, ptr, ptr, %struct.DdSubtable, i32, i32, i32, i32, i32, i32, i32, double, i32, i32, i32, ptr, i64, double, i32, ptr, ptr, ptr, ptr, ptr, ptr, ptr, i32, ptr, ptr, ptr, ptr, ptr, ptr, i32, i32, i32, double, i32, i32, i32, i32, double, double, i32, i32, i32, i32, i32, i32, i32, i32, i32, ptr, ptr, i32, i32, i32, i32, i32, i32, ptr, ptr, ptr, ptr, ptr, ptr, ptr, ptr, i32, i64, i64, i64, i32, i64, i64, double, double, double, double, double, double, i32, ptr, ptr, i64 }
%struct.DdNode = type { i32, i32, ptr, %union.anon, i64 }
%union.anon = type { %struct.DdChildren }
%struct.DdChildren = type { ptr, ptr }
%struct.DdSubtable = type { ptr, i32, i32, i32, i32, i32, i32, i32, i32, i32, i32, i32 }

; Function Attrs: nounwind uwtable
define ptr @extraBddTuples(ptr noundef %0, ptr noundef %1, ptr noundef %2) #0 {
  %4 = alloca ptr, align 8
  %5 = alloca ptr, align 8
  %6 = alloca ptr, align 8
  %7 = alloca ptr, align 8
  %8 = alloca ptr, align 8
  %9 = alloca ptr, align 8
  %10 = alloca ptr, align 8
  %11 = alloca i32, align 4
  store ptr %0, ptr %5, align 8, !tbaa !3
  store ptr %1, ptr %6, align 8, !tbaa !8
  store ptr %2, ptr %7, align 8, !tbaa !8
  call void @llvm.lifetime.start.p0(i64 8, ptr %8) #10
  call void @llvm.lifetime.start.p0(i64 8, ptr %9) #10
  call void @llvm.lifetime.start.p0(i64 8, ptr %10) #10
  %12 = load ptr, ptr %6, align 8, !tbaa !8
  %13 = getelementptr inbounds nuw %struct.DdNode, ptr %12, i32 0, i32 0
  %14 = load i32, ptr %13, align 8, !tbaa !42
  %15 = icmp eq i32 %14, 2147483647
  br i1 %15, label %16, label %20

16:                                               ; preds = %3
  %17 = load ptr, ptr %6, align 8, !tbaa !8
  %18 = getelementptr inbounds nuw %struct.DdNode, ptr %17, i32 0, i32 0
  %19 = load i32, ptr %18, align 8, !tbaa !42
  br label %30

20:                                               ; preds = %3
  %21 = load ptr, ptr %5, align 8, !tbaa !3
  %22 = getelementptr inbounds nuw %struct.DdManager, ptr %21, i32 0, i32 37
  %23 = load ptr, ptr %22, align 8, !tbaa !53
  %24 = load ptr, ptr %6, align 8, !tbaa !8
  %25 = getelementptr inbounds nuw %struct.DdNode, ptr %24, i32 0, i32 0
  %26 = load i32, ptr %25, align 8, !tbaa !42
  %27 = zext i32 %26 to i64
  %28 = getelementptr inbounds nuw i32, ptr %23, i64 %27
  %29 = load i32, ptr %28, align 4, !tbaa !37
  br label %30

30:                                               ; preds = %20, %16
  %31 = phi i32 [ %19, %16 ], [ %29, %20 ]
  %32 = load ptr, ptr %7, align 8, !tbaa !8
  %33 = getelementptr inbounds nuw %struct.DdNode, ptr %32, i32 0, i32 0
  %34 = load i32, ptr %33, align 8, !tbaa !42
  %35 = icmp eq i32 %34, 2147483647
  br i1 %35, label %36, label %40

36:                                               ; preds = %30
  %37 = load ptr, ptr %7, align 8, !tbaa !8
  %38 = getelementptr inbounds nuw %struct.DdNode, ptr %37, i32 0, i32 0
  %39 = load i32, ptr %38, align 8, !tbaa !42
  br label %50

40:                                               ; preds = %30
  %41 = load ptr, ptr %5, align 8, !tbaa !3
  %42 = getelementptr inbounds nuw %struct.DdManager, ptr %41, i32 0, i32 37
  %43 = load ptr, ptr %42, align 8, !tbaa !53
  %44 = load ptr, ptr %7, align 8, !tbaa !8
  %45 = getelementptr inbounds nuw %struct.DdNode, ptr %44, i32 0, i32 0
  %46 = load i32, ptr %45, align 8, !tbaa !42
  %47 = zext i32 %46 to i64
  %48 = getelementptr inbounds nuw i32, ptr %43, i64 %47
  %49 = load i32, ptr %48, align 4, !tbaa !37
  br label %50

50:                                               ; preds = %40, %36
  %51 = phi i32 [ %39, %36 ], [ %49, %40 ]
  %52 = icmp slt i32 %31, %51
  br i1 %52, label %53, label %60

53:                                               ; preds = %50
  %54 = load ptr, ptr %5, align 8, !tbaa !3
  %55 = getelementptr inbounds nuw %struct.DdManager, ptr %54, i32 0, i32 1
  %56 = load ptr, ptr %55, align 8, !tbaa !41
  %57 = ptrtoint ptr %56 to i64
  %58 = xor i64 %57, 1
  %59 = inttoptr i64 %58 to ptr
  store ptr %59, ptr %4, align 8
  store i32 1, ptr %11, align 4
  br label %216

60:                                               ; preds = %50
  %61 = load ptr, ptr %7, align 8, !tbaa !8
  %62 = load ptr, ptr %5, align 8, !tbaa !3
  %63 = getelementptr inbounds nuw %struct.DdManager, ptr %62, i32 0, i32 1
  %64 = load ptr, ptr %63, align 8, !tbaa !41
  %65 = icmp eq ptr %61, %64
  br i1 %65, label %66, label %70

66:                                               ; preds = %60
  %67 = load ptr, ptr %5, align 8, !tbaa !3
  %68 = getelementptr inbounds nuw %struct.DdManager, ptr %67, i32 0, i32 1
  %69 = load ptr, ptr %68, align 8, !tbaa !41
  store ptr %69, ptr %4, align 8
  store i32 1, ptr %11, align 4
  br label %216

70:                                               ; preds = %60
  %71 = load ptr, ptr %5, align 8, !tbaa !3
  %72 = load ptr, ptr %6, align 8, !tbaa !8
  %73 = load ptr, ptr %7, align 8, !tbaa !8
  %74 = call ptr @cuddCacheLookup2(ptr noundef %71, ptr noundef @extraBddTuples, ptr noundef %72, ptr noundef %73)
  store ptr %74, ptr %8, align 8, !tbaa !8
  %75 = load ptr, ptr %8, align 8, !tbaa !8
  %76 = icmp ne ptr %75, null
  br i1 %76, label %77, label %79

77:                                               ; preds = %70
  %78 = load ptr, ptr %8, align 8, !tbaa !8
  store ptr %78, ptr %4, align 8
  store i32 1, ptr %11, align 4
  br label %216

79:                                               ; preds = %70
  %80 = load ptr, ptr %5, align 8, !tbaa !3
  %81 = load ptr, ptr %6, align 8, !tbaa !8
  %82 = load ptr, ptr %7, align 8, !tbaa !8
  %83 = getelementptr inbounds nuw %struct.DdNode, ptr %82, i32 0, i32 3
  %84 = getelementptr inbounds nuw %struct.DdChildren, ptr %83, i32 0, i32 0
  %85 = load ptr, ptr %84, align 8, !tbaa !43
  %86 = call ptr @extraBddTuples(ptr noundef %80, ptr noundef %81, ptr noundef %85)
  store ptr %86, ptr %9, align 8, !tbaa !8
  %87 = load ptr, ptr %9, align 8, !tbaa !8
  %88 = icmp eq ptr %87, null
  br i1 %88, label %89, label %90

89:                                               ; preds = %79
  store ptr null, ptr %4, align 8
  store i32 1, ptr %11, align 4
  br label %216

90:                                               ; preds = %79
  %91 = load ptr, ptr %9, align 8, !tbaa !8
  %92 = ptrtoint ptr %91 to i64
  %93 = and i64 %92, -2
  %94 = inttoptr i64 %93 to ptr
  %95 = getelementptr inbounds nuw %struct.DdNode, ptr %94, i32 0, i32 1
  %96 = load i32, ptr %95, align 4, !tbaa !34
  %97 = add i32 %96, 1
  store i32 %97, ptr %95, align 4, !tbaa !34
  %98 = load ptr, ptr %6, align 8, !tbaa !8
  %99 = load ptr, ptr %5, align 8, !tbaa !3
  %100 = getelementptr inbounds nuw %struct.DdManager, ptr %99, i32 0, i32 1
  %101 = load ptr, ptr %100, align 8, !tbaa !41
  %102 = icmp eq ptr %98, %101
  br i1 %102, label %103, label %117

103:                                              ; preds = %90
  %104 = load ptr, ptr %5, align 8, !tbaa !3
  %105 = getelementptr inbounds nuw %struct.DdManager, ptr %104, i32 0, i32 1
  %106 = load ptr, ptr %105, align 8, !tbaa !41
  %107 = ptrtoint ptr %106 to i64
  %108 = xor i64 %107, 1
  %109 = inttoptr i64 %108 to ptr
  store ptr %109, ptr %10, align 8, !tbaa !8
  %110 = load ptr, ptr %10, align 8, !tbaa !8
  %111 = ptrtoint ptr %110 to i64
  %112 = and i64 %111, -2
  %113 = inttoptr i64 %112 to ptr
  %114 = getelementptr inbounds nuw %struct.DdNode, ptr %113, i32 0, i32 1
  %115 = load i32, ptr %114, align 4, !tbaa !34
  %116 = add i32 %115, 1
  store i32 %116, ptr %114, align 4, !tbaa !34
  br label %141

117:                                              ; preds = %90
  %118 = load ptr, ptr %5, align 8, !tbaa !3
  %119 = load ptr, ptr %6, align 8, !tbaa !8
  %120 = getelementptr inbounds nuw %struct.DdNode, ptr %119, i32 0, i32 3
  %121 = getelementptr inbounds nuw %struct.DdChildren, ptr %120, i32 0, i32 0
  %122 = load ptr, ptr %121, align 8, !tbaa !43
  %123 = load ptr, ptr %7, align 8, !tbaa !8
  %124 = getelementptr inbounds nuw %struct.DdNode, ptr %123, i32 0, i32 3
  %125 = getelementptr inbounds nuw %struct.DdChildren, ptr %124, i32 0, i32 0
  %126 = load ptr, ptr %125, align 8, !tbaa !43
  %127 = call ptr @extraBddTuples(ptr noundef %118, ptr noundef %122, ptr noundef %126)
  store ptr %127, ptr %10, align 8, !tbaa !8
  %128 = load ptr, ptr %10, align 8, !tbaa !8
  %129 = icmp eq ptr %128, null
  br i1 %129, label %130, label %133

130:                                              ; preds = %117
  %131 = load ptr, ptr %5, align 8, !tbaa !3
  %132 = load ptr, ptr %9, align 8, !tbaa !8
  call void @Cudd_RecursiveDeref(ptr noundef %131, ptr noundef %132)
  store ptr null, ptr %4, align 8
  store i32 1, ptr %11, align 4
  br label %216

133:                                              ; preds = %117
  %134 = load ptr, ptr %10, align 8, !tbaa !8
  %135 = ptrtoint ptr %134 to i64
  %136 = and i64 %135, -2
  %137 = inttoptr i64 %136 to ptr
  %138 = getelementptr inbounds nuw %struct.DdNode, ptr %137, i32 0, i32 1
  %139 = load i32, ptr %138, align 4, !tbaa !34
  %140 = add i32 %139, 1
  store i32 %140, ptr %138, align 4, !tbaa !34
  br label %141

141:                                              ; preds = %133, %103
  %142 = load ptr, ptr %9, align 8, !tbaa !8
  %143 = load ptr, ptr %10, align 8, !tbaa !8
  %144 = icmp eq ptr %142, %143
  br i1 %144, label %145, label %147

145:                                              ; preds = %141
  %146 = load ptr, ptr %10, align 8, !tbaa !8
  store ptr %146, ptr %8, align 8, !tbaa !8
  br label %196

147:                                              ; preds = %141
  %148 = load ptr, ptr %10, align 8, !tbaa !8
  %149 = ptrtoint ptr %148 to i64
  %150 = and i64 %149, 1
  %151 = trunc i64 %150 to i32
  %152 = icmp ne i32 %151, 0
  br i1 %152, label %153, label %179

153:                                              ; preds = %147
  %154 = load ptr, ptr %5, align 8, !tbaa !3
  %155 = load ptr, ptr %7, align 8, !tbaa !8
  %156 = getelementptr inbounds nuw %struct.DdNode, ptr %155, i32 0, i32 0
  %157 = load i32, ptr %156, align 8, !tbaa !42
  %158 = load ptr, ptr %10, align 8, !tbaa !8
  %159 = ptrtoint ptr %158 to i64
  %160 = xor i64 %159, 1
  %161 = inttoptr i64 %160 to ptr
  %162 = load ptr, ptr %9, align 8, !tbaa !8
  %163 = ptrtoint ptr %162 to i64
  %164 = xor i64 %163, 1
  %165 = inttoptr i64 %164 to ptr
  %166 = call ptr @cuddUniqueInter(ptr noundef %154, i32 noundef %157, ptr noundef %161, ptr noundef %165)
  store ptr %166, ptr %8, align 8, !tbaa !8
  %167 = load ptr, ptr %8, align 8, !tbaa !8
  %168 = icmp eq ptr %167, null
  br i1 %168, label %169, label %174

169:                                              ; preds = %153
  %170 = load ptr, ptr %5, align 8, !tbaa !3
  %171 = load ptr, ptr %9, align 8, !tbaa !8
  call void @Cudd_RecursiveDeref(ptr noundef %170, ptr noundef %171)
  %172 = load ptr, ptr %5, align 8, !tbaa !3
  %173 = load ptr, ptr %10, align 8, !tbaa !8
  call void @Cudd_RecursiveDeref(ptr noundef %172, ptr noundef %173)
  store ptr null, ptr %4, align 8
  store i32 1, ptr %11, align 4
  br label %216

174:                                              ; preds = %153
  %175 = load ptr, ptr %8, align 8, !tbaa !8
  %176 = ptrtoint ptr %175 to i64
  %177 = xor i64 %176, 1
  %178 = inttoptr i64 %177 to ptr
  store ptr %178, ptr %8, align 8, !tbaa !8
  br label %195

179:                                              ; preds = %147
  %180 = load ptr, ptr %5, align 8, !tbaa !3
  %181 = load ptr, ptr %7, align 8, !tbaa !8
  %182 = getelementptr inbounds nuw %struct.DdNode, ptr %181, i32 0, i32 0
  %183 = load i32, ptr %182, align 8, !tbaa !42
  %184 = load ptr, ptr %10, align 8, !tbaa !8
  %185 = load ptr, ptr %9, align 8, !tbaa !8
  %186 = call ptr @cuddUniqueInter(ptr noundef %180, i32 noundef %183, ptr noundef %184, ptr noundef %185)
  store ptr %186, ptr %8, align 8, !tbaa !8
  %187 = load ptr, ptr %8, align 8, !tbaa !8
  %188 = icmp eq ptr %187, null
  br i1 %188, label %189, label %194

189:                                              ; preds = %179
  %190 = load ptr, ptr %5, align 8, !tbaa !3
  %191 = load ptr, ptr %9, align 8, !tbaa !8
  call void @Cudd_RecursiveDeref(ptr noundef %190, ptr noundef %191)
  %192 = load ptr, ptr %5, align 8, !tbaa !3
  %193 = load ptr, ptr %10, align 8, !tbaa !8
  call void @Cudd_RecursiveDeref(ptr noundef %192, ptr noundef %193)
  store ptr null, ptr %4, align 8
  store i32 1, ptr %11, align 4
  br label %216

194:                                              ; preds = %179
  br label %195

195:                                              ; preds = %194, %174
  br label %196

196:                                              ; preds = %195, %145
  %197 = load ptr, ptr %9, align 8, !tbaa !8
  %198 = ptrtoint ptr %197 to i64
  %199 = and i64 %198, -2
  %200 = inttoptr i64 %199 to ptr
  %201 = getelementptr inbounds nuw %struct.DdNode, ptr %200, i32 0, i32 1
  %202 = load i32, ptr %201, align 4, !tbaa !34
  %203 = add i32 %202, -1
  store i32 %203, ptr %201, align 4, !tbaa !34
  %204 = load ptr, ptr %10, align 8, !tbaa !8
  %205 = ptrtoint ptr %204 to i64
  %206 = and i64 %205, -2
  %207 = inttoptr i64 %206 to ptr
  %208 = getelementptr inbounds nuw %struct.DdNode, ptr %207, i32 0, i32 1
  %209 = load i32, ptr %208, align 4, !tbaa !34
  %210 = add i32 %209, -1
  store i32 %210, ptr %208, align 4, !tbaa !34
  %211 = load ptr, ptr %5, align 8, !tbaa !3
  %212 = load ptr, ptr %6, align 8, !tbaa !8
  %213 = load ptr, ptr %7, align 8, !tbaa !8
  %214 = load ptr, ptr %8, align 8, !tbaa !8
  call void @cuddCacheInsert2(ptr noundef %211, ptr noundef @extraBddTuples, ptr noundef %212, ptr noundef %213, ptr noundef %214)
  %215 = load ptr, ptr %8, align 8, !tbaa !8
  store ptr %215, ptr %4, align 8
  store i32 1, ptr %11, align 4
  br label %216

216:                                              ; preds = %196, %189, %169, %130, %89, %77, %66, %53
  call void @llvm.lifetime.end.p0(i64 8, ptr %10) #10
  call void @llvm.lifetime.end.p0(i64 8, ptr %9) #10
  call void @llvm.lifetime.end.p0(i64 8, ptr %8) #10
  %217 = load ptr, ptr %4, align 8
  ret ptr %217
}