; Function Attrs: nounwind uwtable
define ptr @extraBddTuples(ptr noundef %0, ptr noundef %1, ptr noundef %2) #0 {
  %4 = load i32, ptr %1, align 8, !tbaa !35
  %5 = icmp eq i32 %4, 2147483647
  br i1 %5, label %12, label %6

6:                                                ; preds = %3
  %7 = getelementptr inbounds nuw i8, ptr %0, i64 312
  %8 = load ptr, ptr %7, align 8, !tbaa !45
  %9 = zext i32 %4 to i64
  %10 = getelementptr inbounds nuw i32, ptr %8, i64 %9
  %11 = load i32, ptr %10, align 4, !tbaa !31
  br label %12

12:                                               ; preds = %3, %6
  %13 = phi i32 [ %11, %6 ], [ 2147483647, %3 ]
  %14 = load i32, ptr %2, align 8, !tbaa !35
  %15 = icmp eq i32 %14, 2147483647
  br i1 %15, label %22, label %16

16:                                               ; preds = %12
  %17 = getelementptr inbounds nuw i8, ptr %0, i64 312
  %18 = load ptr, ptr %17, align 8, !tbaa !45
  %19 = zext i32 %14 to i64
  %20 = getelementptr inbounds nuw i32, ptr %18, i64 %19
  %21 = load i32, ptr %20, align 4, !tbaa !31
  br label %22

22:                                               ; preds = %12, %16
  %23 = phi i32 [ %21, %16 ], [ 2147483647, %12 ]
  %24 = icmp slt i32 %13, %23
  %25 = getelementptr inbounds nuw i8, ptr %0, i64 40
  %26 = load ptr, ptr %25, align 8, !tbaa !34
  br i1 %24, label %27, label %31

27:                                               ; preds = %22
  %28 = ptrtoint ptr %26 to i64
  %29 = xor i64 %28, 1
  %30 = inttoptr i64 %29 to ptr
  br label %95

31:                                               ; preds = %22
  %32 = icmp eq ptr %2, %26
  br i1 %32, label %95, label %33

33:                                               ; preds = %31
  %34 = tail call ptr @cuddCacheLookup2(ptr noundef nonnull %0, ptr noundef nonnull @extraBddTuples, ptr noundef nonnull %1, ptr noundef nonnull %2) #19
  %.not = icmp eq ptr %34, null
  br i1 %.not, label %35, label %95

35:                                               ; preds = %33
  %36 = getelementptr inbounds nuw i8, ptr %2, i64 16
  %37 = load ptr, ptr %36, align 8, !tbaa !36
  %38 = tail call ptr @extraBddTuples(ptr noundef nonnull %0, ptr noundef nonnull %1, ptr noundef %37)
  %39 = icmp eq ptr %38, null
  br i1 %39, label %95, label %40

40:                                               ; preds = %35
  %41 = ptrtoint ptr %38 to i64
  %42 = and i64 %41, -2
  %43 = inttoptr i64 %42 to ptr
  %44 = getelementptr inbounds nuw i8, ptr %43, i64 4
  %45 = load i32, ptr %44, align 4, !tbaa !24
  %46 = add i32 %45, 1
  store i32 %46, ptr %44, align 4, !tbaa !24
  %47 = load ptr, ptr %25, align 8, !tbaa !34
  %48 = icmp eq ptr %1, %47
  br i1 %48, label %49, label %53

49:                                               ; preds = %40
  %50 = ptrtoint ptr %1 to i64
  %51 = xor i64 %50, 1
  %52 = inttoptr i64 %51 to ptr
  br label %62

53:                                               ; preds = %40
  %54 = getelementptr inbounds nuw i8, ptr %1, i64 16
  %55 = load ptr, ptr %54, align 8, !tbaa !36
  %56 = load ptr, ptr %36, align 8, !tbaa !36
  %57 = tail call ptr @extraBddTuples(ptr noundef nonnull %0, ptr noundef %55, ptr noundef %56)
  %58 = icmp eq ptr %57, null
  br i1 %58, label %59, label %60

59:                                               ; preds = %53
  tail call void @Cudd_RecursiveDeref(ptr noundef nonnull %0, ptr noundef nonnull %38) #19
  br label %95

60:                                               ; preds = %53
  %61 = ptrtoint ptr %57 to i64
  br label %62

62:                                               ; preds = %60, %49
  %.sink82 = phi i64 [ %61, %60 ], [ %50, %49 ]
  %.0 = phi ptr [ %57, %60 ], [ %52, %49 ]
  %63 = and i64 %.sink82, -2
  %64 = inttoptr i64 %63 to ptr
  %65 = getelementptr inbounds nuw i8, ptr %64, i64 4
  %66 = load i32, ptr %65, align 4, !tbaa !24
  %67 = add i32 %66, 1
  store i32 %67, ptr %65, align 4, !tbaa !24
  %68 = icmp eq ptr %38, %.0
  %.pre = ptrtoint ptr %.0 to i64
  br i1 %68, label %._crit_edge, label %69

69:                                               ; preds = %62
  %70 = and i64 %.pre, 1
  %.not78 = icmp eq i64 %70, 0
  %71 = load i32, ptr %2, align 8, !tbaa !35
  br i1 %.not78, label %84, label %72

72:                                               ; preds = %69
  %73 = and i64 %.pre, -2
  %74 = inttoptr i64 %73 to ptr
  %75 = xor i64 %41, 1
  %76 = inttoptr i64 %75 to ptr
  %77 = tail call ptr @cuddUniqueInter(ptr noundef nonnull %0, i32 noundef %71, ptr noundef %74, ptr noundef %76) #19
  %78 = icmp eq ptr %77, null
  br i1 %78, label %79, label %80

79:                                               ; preds = %72
  tail call void @Cudd_RecursiveDeref(ptr noundef nonnull %0, ptr noundef nonnull %38) #19
  tail call void @Cudd_RecursiveDeref(ptr noundef nonnull %0, ptr noundef %.0) #19
  br label %95

80:                                               ; preds = %72
  %81 = ptrtoint ptr %77 to i64
  %82 = xor i64 %81, 1
  %83 = inttoptr i64 %82 to ptr
  br label %._crit_edge

84:                                               ; preds = %69
  %85 = tail call ptr @cuddUniqueInter(ptr noundef nonnull %0, i32 noundef %71, ptr noundef %.0, ptr noundef nonnull %38) #19
  %86 = icmp eq ptr %85, null
  br i1 %86, label %87, label %._crit_edge

87:                                               ; preds = %84
  tail call void @Cudd_RecursiveDeref(ptr noundef nonnull %0, ptr noundef nonnull %38) #19
  tail call void @Cudd_RecursiveDeref(ptr noundef nonnull %0, ptr noundef %.0) #19
  br label %95

._crit_edge:                                      ; preds = %62, %80, %84
  %.065 = phi ptr [ %83, %80 ], [ %85, %84 ], [ %.0, %62 ]
  %88 = load i32, ptr %44, align 4, !tbaa !24
  %89 = add i32 %88, -1
  store i32 %89, ptr %44, align 4, !tbaa !24
  %90 = and i64 %.pre, -2
  %91 = inttoptr i64 %90 to ptr
  %92 = getelementptr inbounds nuw i8, ptr %91, i64 4
  %93 = load i32, ptr %92, align 4, !tbaa !24
  %94 = add i32 %93, -1
  store i32 %94, ptr %92, align 4, !tbaa !24
  tail call void @cuddCacheInsert2(ptr noundef nonnull %0, ptr noundef nonnull @extraBddTuples, ptr noundef nonnull %1, ptr noundef nonnull %2, ptr noundef %.065) #19
  br label %95

95:                                               ; preds = %35, %33, %31, %._crit_edge, %87, %79, %59, %27
  %.064 = phi ptr [ %30, %27 ], [ %.065, %._crit_edge ], [ null, %79 ], [ null, %87 ], [ null, %59 ], [ %26, %31 ], [ %34, %33 ], [ null, %35 ]
  ret ptr %.064
}